target datalayout = "e-m:e-p270:32:32-p271:32:32-p272:64:64-i64:64-i128:128-f80:128-n8:16:32:64-S128"
target triple = "x86_64-unknown-linux-gnu"

%"struct.node::AssertionInfo" = type { ptr, ptr, ptr }
%"class.v8::IndirectHandleBase" = type { ptr }
%struct.uv__queue = type { ptr, ptr }
%struct.uv_async_s = type { ptr, ptr, i32, ptr, %struct.uv__queue, %union.anon.33, ptr, i32, ptr, %struct.uv__queue, i32 }
%union.anon.33 = type { [4 x ptr] }
%"class.v8::Global.44" = type { %"class.v8::PersistentBase.45" }
%"class.v8::PersistentBase.45" = type { %"class.v8::IndirectHandleBase" }
%"class.node::MutexBase" = type { %union.pthread_mutex_t }
%union.pthread_mutex_t = type { %struct.__pthread_mutex_s }
%struct.__pthread_mutex_s = type { i32, i32, i32, i32, i32, i16, i16, %struct.__pthread_internal_list }
%struct.__pthread_internal_list = type { ptr, ptr }
%"class.v8::Global.293" = type { %"class.v8::PersistentBase.294" }
%"class.v8::PersistentBase.294" = type { %"class.v8::IndirectHandleBase" }
%"struct.node::async_context" = type { double, double }
%"class.v8impl::(anonymous namespace)::ThreadSafeFunction" = type <{ %"class.node::AsyncResource", %"class.node::MutexBase", %"class.std::unique_ptr.298", %"class.std::queue", %struct.uv_async_s, i64, i8, %"struct.std::atomic.309", [6 x i8], ptr, i64, %"class.v8::Global.44", ptr, ptr, ptr, ptr, i8, [7 x i8] }>
%"class.node::AsyncResource" = type { ptr, ptr, %"class.v8::Global.293", %"struct.node::async_context" }
%"class.std::unique_ptr.298" = type { %"struct.std::__uniq_ptr_data.299" }
%"struct.std::__uniq_ptr_data.299" = type { %"class.std::__uniq_ptr_impl.300" }
%"class.std::__uniq_ptr_impl.300" = type { %"class.std::tuple.301" }
%"class.std::tuple.301" = type { %"struct.std::_Tuple_impl.302" }
%"struct.std::_Tuple_impl.302" = type { %"struct.std::_Head_base.305" }
%"struct.std::_Head_base.305" = type { ptr }
%"class.std::queue" = type { %"class.std::deque" }
%"class.std::deque" = type { %"class.std::_Deque_base" }
%"class.std::_Deque_base" = type { %"struct.std::_Deque_base<void *, std::allocator<void *>>::_Deque_impl" }
%"struct.std::_Deque_base<void *, std::allocator<void *>>::_Deque_impl" = type { %"struct.std::_Deque_base<void *, std::allocator<void *>>::_Deque_impl_data" }
%"struct.std::_Deque_base<void *, std::allocator<void *>>::_Deque_impl_data" = type { ptr, i64, %"struct.std::_Deque_iterator", %"struct.std::_Deque_iterator" }
%"struct.std::_Deque_iterator" = type { ptr, ptr, ptr, ptr }
%"struct.std::atomic.309" = type { %"struct.std::__atomic_base.310" }
%"struct.std::__atomic_base.310" = type { i8 }
%"class.node::MutexBase<node::LibuvMutexTraits>::ScopedLock" = type { ptr }
%"class.node::ConditionVariableBase" = type { %union.pthread_cond_t }
%union.pthread_cond_t = type { %struct.__pthread_cond_s }
%struct.__pthread_cond_s = type { %union.__atomic_wide_counter, %union.__atomic_wide_counter, [2 x i32], [2 x i32], i32, i32, [2 x i32] }
%union.__atomic_wide_counter = type { i64 }

@_ZZ32napi_release_threadsafe_functionE4args = internal constant %"struct.node::AssertionInfo" { ptr @.str.19, ptr @.str.11, ptr @.str.20 }, align 8
@_ZZN6v8impl12_GLOBAL__N_118ThreadSafeFunction4SendEvE4args = internal constant %"struct.node::AssertionInfo" { ptr @.str.64, ptr @.str.65, ptr @.str.66 }, align 8

; Function Attrs: mustprogress nounwind uwtable
define linkonce_odr dso_local noundef nonnull align 8 dereferenceable(8) ptr @_ZNSt10_Head_baseILm0EPN4node21ConditionVariableBaseINS0_16LibuvMutexTraitsEEELb0EE7_M_headERKS5_(ptr noundef nonnull align 8 dereferenceable(8) %__b) #4 comdat align 2 {
entry:
  %__b.addr = alloca ptr, align 8
  store ptr %__b, ptr %__b.addr, align 8
  %0 = load ptr, ptr %__b.addr, align 8
  %_M_head_impl = getelementptr inbounds %"struct.std::_Head_base.305", ptr %0, i32 0, i32 0
  ret ptr %_M_head_impl
}

; Function Attrs: mustprogress nounwind uwtable
define linkonce_odr dso_local noundef nonnull align 8 dereferenceable(8) ptr @_ZNSt11_Tuple_implILm0EJPN4node21ConditionVariableBaseINS0_16LibuvMutexTraitsEEESt14default_deleteIS3_EEE7_M_headERKS7_(ptr noundef nonnull align 8 dereferenceable(8) %__t) #4 comdat align 2 {
entry:
  %__t.addr = alloca ptr, align 8
  store ptr %__t, ptr %__t.addr, align 8
  %0 = load ptr, ptr %__t.addr, align 8
  %call = call noundef nonnull align 8 dereferenceable(8) ptr @_ZNSt10_Head_baseILm0EPN4node21ConditionVariableBaseINS0_16LibuvMutexTraitsEEELb0EE7_M_headERKS5_(ptr noundef nonnull align 8 dereferenceable(8) %0) #3
  ret ptr %call
}

; Function Attrs: mustprogress nounwind uwtable
define linkonce_odr dso_local noundef nonnull align 8 dereferenceable(8) ptr @_ZSt12__get_helperILm0EPN4node21ConditionVariableBaseINS0_16LibuvMutexTraitsEEEJSt14default_deleteIS3_EEERKT0_RKSt11_Tuple_implIXT_EJS7_DpT1_EE(ptr noundef nonnull align 8 dereferenceable(8) %__t) #4 comdat {
entry:
  %__t.addr = alloca ptr, align 8
  store ptr %__t, ptr %__t.addr, align 8
  %0 = load ptr, ptr %__t.addr, align 8
  %call = call noundef nonnull align 8 dereferenceable(8) ptr @_ZNSt11_Tuple_implILm0EJPN4node21ConditionVariableBaseINS0_16LibuvMutexTraitsEEESt14default_deleteIS3_EEE7_M_headERKS7_(ptr noundef nonnull align 8 dereferenceable(8) %0) #3
  ret ptr %call
}

; Function Attrs: mustprogress nounwind uwtable
define linkonce_odr dso_local noundef nonnull align 8 dereferenceable(8) ptr @_ZSt3getILm0EJPN4node21ConditionVariableBaseINS0_16LibuvMutexTraitsEEESt14default_deleteIS3_EEERKNSt13tuple_elementIXT_ESt5tupleIJDpT0_EEE4typeERKSB_(ptr noundef nonnull align 8 dereferenceable(8) %__t) #4 comdat {
entry:
  %__t.addr = alloca ptr, align 8
  store ptr %__t, ptr %__t.addr, align 8
  %0 = load ptr, ptr %__t.addr, align 8
  %call = call noundef nonnull align 8 dereferenceable(8) ptr @_ZSt12__get_helperILm0EPN4node21ConditionVariableBaseINS0_16LibuvMutexTraitsEEEJSt14default_deleteIS3_EEERKT0_RKSt11_Tuple_implIXT_EJS7_DpT1_EE(ptr noundef nonnull align 8 dereferenceable(8) %0) #3
  ret ptr %call
}

; Function Attrs: mustprogress nounwind uwtable
define linkonce_odr dso_local noundef ptr @_ZNKSt15__uniq_ptr_implIN4node21ConditionVariableBaseINS0_16LibuvMutexTraitsEEESt14default_deleteIS3_EE6_M_ptrEv(ptr noundef nonnull align 8 dereferenceable(8) %this) #4 comdat align 2 {
entry:
  %this.addr = alloca ptr, align 8
  store ptr %this, ptr %this.addr, align 8
  %this1 = load ptr, ptr %this.addr, align 8
  %_M_t = getelementptr inbounds %"class.std::__uniq_ptr_impl.300", ptr %this1, i32 0, i32 0
  %call = call noundef nonnull align 8 dereferenceable(8) ptr @_ZSt3getILm0EJPN4node21ConditionVariableBaseINS0_16LibuvMutexTraitsEEESt14default_deleteIS3_EEERKNSt13tuple_elementIXT_ESt5tupleIJDpT0_EEE4typeERKSB_(ptr noundef nonnull align 8 dereferenceable(8) %_M_t) #3
  %0 = load ptr, ptr %call, align 8
  ret ptr %0
}

; Function Attrs: mustprogress nounwind uwtable
define linkonce_odr dso_local void @_ZN4node16LibuvMutexTraits12mutex_unlockEP15pthread_mutex_t(ptr noundef %mutex) #4 comdat align 2 {
entry:
  %mutex.addr = alloca ptr, align 8
  store ptr %mutex, ptr %mutex.addr, align 8
  %0 = load ptr, ptr %mutex.addr, align 8
  call void @uv_mutex_unlock(ptr noundef %0)
  ret void
}

; Function Attrs: mustprogress nounwind uwtable
define linkonce_odr dso_local void @_ZN4node16LibuvMutexTraits11cond_signalEP14pthread_cond_t(ptr noundef %cond) #4 comdat align 2 {
entry:
  %cond.addr = alloca ptr, align 8
  store ptr %cond, ptr %cond.addr, align 8
  %0 = load ptr, ptr %cond.addr, align 8
  call void @uv_cond_signal(ptr noundef %0)
  ret void
}

; Function Attrs: mustprogress nounwind uwtable
define linkonce_odr dso_local noundef ptr @_ZNKSt10unique_ptrIN4node21ConditionVariableBaseINS0_16LibuvMutexTraitsEEESt14default_deleteIS3_EE3getEv(ptr noundef nonnull align 8 dereferenceable(8) %this) #4 comdat align 2 {
entry:
  %this.addr = alloca ptr, align 8
  store ptr %this, ptr %this.addr, align 8
  %this1 = load ptr, ptr %this.addr, align 8
  %_M_t = getelementptr inbounds %"class.std::unique_ptr.298", ptr %this1, i32 0, i32 0
  %call = call noundef ptr @_ZNKSt15__uniq_ptr_implIN4node21ConditionVariableBaseINS0_16LibuvMutexTraitsEEESt14default_deleteIS3_EE6_M_ptrEv(ptr noundef nonnull align 8 dereferenceable(8) %_M_t) #3
  ret ptr %call
}

; Function Attrs: mustprogress nounwind uwtable
define linkonce_odr dso_local void @_ZN4node16LibuvMutexTraits10mutex_lockEP15pthread_mutex_t(ptr noundef %mutex) #4 comdat align 2 {
entry:
  %mutex.addr = alloca ptr, align 8
  store ptr %mutex, ptr %mutex.addr, align 8
  %0 = load ptr, ptr %mutex.addr, align 8
  call void @uv_mutex_lock(ptr noundef %0)
  ret void
}

; Function Attrs: mustprogress nounwind uwtable
define linkonce_odr dso_local void @_ZN4node9MutexBaseINS_16LibuvMutexTraitsEE10ScopedLockD2Ev(ptr noundef nonnull align 8 dereferenceable(8) %this) unnamed_addr #4 comdat align 2 {
entry:
  %this.addr = alloca ptr, align 8
  store ptr %this, ptr %this.addr, align 8
  %this1 = load ptr, ptr %this.addr, align 8
  %mutex_ = getelementptr inbounds %"class.node::MutexBase<node::LibuvMutexTraits>::ScopedLock", ptr %this1, i32 0, i32 0
  %0 = load ptr, ptr %mutex_, align 8
  %mutex_2 = getelementptr inbounds %"class.node::MutexBase", ptr %0, i32 0, i32 0
  call void @_ZN4node16LibuvMutexTraits12mutex_unlockEP15pthread_mutex_t(ptr noundef %mutex_2)
  ret void
}

; Function Attrs: mustprogress nounwind uwtable
define internal void @_ZN6v8impl12_GLOBAL__N_118ThreadSafeFunction4SendEv(ptr noundef nonnull align 8 dereferenceable(369) %this) #4 align 2 {
entry:
  %this.addr.i = alloca ptr, align 8
  %__i.addr.i = alloca i8, align 1
  %__m.addr.i = alloca i32, align 4
  %.atomictmp.i = alloca i8, align 1
  %atomic-temp.i = alloca i8, align 1
  %this.addr = alloca ptr, align 8
  %current_state = alloca i8, align 1
  store ptr %this, ptr %this.addr, align 8
  %this1 = load ptr, ptr %this.addr, align 8
  %dispatch_state = getelementptr inbounds %"class.v8impl::(anonymous namespace)::ThreadSafeFunction", ptr %this1, i32 0, i32 7
  store ptr %dispatch_state, ptr %this.addr.i, align 8
  store i8 2, ptr %__i.addr.i, align 1
  store i32 5, ptr %__m.addr.i, align 4
  %this1.i = load ptr, ptr %this.addr.i, align 8
  %0 = load i32, ptr %__m.addr.i, align 4
  %1 = load i8, ptr %__i.addr.i, align 1
  store i8 %1, ptr %.atomictmp.i, align 1
  switch i32 %0, label %monotonic.i [
    i32 1, label %acquire.i
    i32 2, label %acquire.i
    i32 3, label %release.i
    i32 4, label %acqrel.i
    i32 5, label %seqcst.i
  ]

monotonic.i:                                      ; preds = %entry
  %2 = load i8, ptr %.atomictmp.i, align 1
  %3 = atomicrmw or ptr %this1.i, i8 %2 monotonic, align 1
  store i8 %3, ptr %atomic-temp.i, align 1
  br label %_ZNSt13__atomic_baseIhE8fetch_orEhSt12memory_order.exit

acquire.i:                                        ; preds = %entry, %entry
  %4 = load i8, ptr %.atomictmp.i, align 1
  %5 = atomicrmw or ptr %this1.i, i8 %4 acquire, align 1
  store i8 %5, ptr %atomic-temp.i, align 1
  br label %_ZNSt13__atomic_baseIhE8fetch_orEhSt12memory_order.exit

release.i:                                        ; preds = %entry
  %6 = load i8, ptr %.atomictmp.i, align 1
  %7 = atomicrmw or ptr %this1.i, i8 %6 release, align 1
  store i8 %7, ptr %atomic-temp.i, align 1
  br label %_ZNSt13__atomic_baseIhE8fetch_orEhSt12memory_order.exit

acqrel.i:                                         ; preds = %entry
  %8 = load i8, ptr %.atomictmp.i, align 1
  %9 = atomicrmw or ptr %this1.i, i8 %8 acq_rel, align 1
  store i8 %9, ptr %atomic-temp.i, align 1
  br label %_ZNSt13__atomic_baseIhE8fetch_orEhSt12memory_order.exit

seqcst.i:                                         ; preds = %entry
  %10 = load i8, ptr %.atomictmp.i, align 1
  %11 = atomicrmw or ptr %this1.i, i8 %10 seq_cst, align 1
  store i8 %11, ptr %atomic-temp.i, align 1
  br label %_ZNSt13__atomic_baseIhE8fetch_orEhSt12memory_order.exit

_ZNSt13__atomic_baseIhE8fetch_orEhSt12memory_order.exit: ; preds = %seqcst.i, %acqrel.i, %release.i, %acquire.i, %monotonic.i
  %12 = load i8, ptr %atomic-temp.i, align 1
  store i8 %12, ptr %current_state, align 1
  %13 = load i8, ptr %current_state, align 1
  %conv = zext i8 %13 to i32
  %and = and i32 %conv, 1
  %cmp = icmp eq i32 %and, 1
  br i1 %cmp, label %if.then, label %if.end

if.then:                                          ; preds = %_ZNSt13__atomic_baseIhE8fetch_orEhSt12memory_order.exit
  br label %do.end10

if.end:                                           ; preds = %_ZNSt13__atomic_baseIhE8fetch_orEhSt12memory_order.exit
  br label %do.body

do.body:                                          ; preds = %if.end
  %async = getelementptr inbounds %"class.v8impl::(anonymous namespace)::ThreadSafeFunction", ptr %this1, i32 0, i32 4
  %call2 = call i32 @uv_async_send(ptr noundef %async)
  %cmp3 = icmp eq i32 0, %call2
  %lnot = xor i1 %cmp3, true
  %lnot4 = xor i1 %lnot, true
  %lnot5 = xor i1 %lnot4, true
  br i1 %lnot5, label %if.then7, label %if.end9

if.then7:                                         ; preds = %do.body
  br label %do.body8

do.body8:                                         ; preds = %if.then7
  call void @_ZN4node6AssertERKNS_13AssertionInfoE(ptr noundef nonnull align 8 dereferenceable(24) @_ZZN6v8impl12_GLOBAL__N_118ThreadSafeFunction4SendEvE4args)
  call void @abort() #14
  unreachable

do.end:                                           ; No predecessors!
  br label %if.end9

if.end9:                                          ; preds = %do.end, %do.body
  br label %do.end10

do.end10:                                         ; preds = %if.end9, %if.then
  ret void
}

; Function Attrs: mustprogress nounwind uwtable
define linkonce_odr dso_local void @_ZN4node21ConditionVariableBaseINS_16LibuvMutexTraitsEE6SignalERKNS_9MutexBaseIS1_E10ScopedLockE(ptr noundef nonnull align 8 dereferenceable(48) %this, ptr noundef nonnull align 8 dereferenceable(8) %0) #4 comdat align 2 {
entry:
  %this.addr = alloca ptr, align 8
  %.addr = alloca ptr, align 8
  store ptr %this, ptr %this.addr, align 8
  store ptr %0, ptr %.addr, align 8
  %this1 = load ptr, ptr %this.addr, align 8
  %cond_ = getelementptr inbounds %"class.node::ConditionVariableBase", ptr %this1, i32 0, i32 0
  call void @_ZN4node16LibuvMutexTraits11cond_signalEP14pthread_cond_t(ptr noundef %cond_)
  ret void
}

; Function Attrs: mustprogress nounwind uwtable
define linkonce_odr dso_local noundef ptr @_ZNKSt10unique_ptrIN4node21ConditionVariableBaseINS0_16LibuvMutexTraitsEEESt14default_deleteIS3_EEptEv(ptr noundef nonnull align 8 dereferenceable(8) %this) #4 comdat align 2 {
entry:
  %this.addr = alloca ptr, align 8
  store ptr %this, ptr %this.addr, align 8
  %this1 = load ptr, ptr %this.addr, align 8
  %call = call noundef ptr @_ZNKSt10unique_ptrIN4node21ConditionVariableBaseINS0_16LibuvMutexTraitsEEESt14default_deleteIS3_EE3getEv(ptr noundef nonnull align 8 dereferenceable(8) %this1) #3
  ret ptr %call
}

; Function Attrs: mustprogress nounwind uwtable
define linkonce_odr dso_local void @_ZN4node9MutexBaseINS_16LibuvMutexTraitsEE10ScopedLockC2ERKS2_(ptr noundef nonnull align 8 dereferenceable(8) %this, ptr noundef nonnull align 8 dereferenceable(40) %mutex) unnamed_addr #4 comdat align 2 {
entry:
  %this.addr = alloca ptr, align 8
  %mutex.addr = alloca ptr, align 8
  store ptr %this, ptr %this.addr, align 8
  store ptr %mutex, ptr %mutex.addr, align 8
  %this1 = load ptr, ptr %this.addr, align 8
  %mutex_ = getelementptr inbounds %"class.node::MutexBase<node::LibuvMutexTraits>::ScopedLock", ptr %this1, i32 0, i32 0
  %0 = load ptr, ptr %mutex.addr, align 8
  store ptr %0, ptr %mutex_, align 8
  %mutex_2 = getelementptr inbounds %"class.node::MutexBase<node::LibuvMutexTraits>::ScopedLock", ptr %this1, i32 0, i32 0
  %1 = load ptr, ptr %mutex_2, align 8
  %mutex_3 = getelementptr inbounds %"class.node::MutexBase", ptr %1, i32 0, i32 0
  call void @_ZN4node16LibuvMutexTraits10mutex_lockEP15pthread_mutex_t(ptr noundef %mutex_3)
  ret void
}

; Function Attrs: mustprogress nounwind uwtable
define internal noundef i32 @_ZN6v8impl12_GLOBAL__N_118ThreadSafeFunction7ReleaseE37napi_threadsafe_function_release_mode(ptr noundef nonnull align 8 dereferenceable(369) %this, i32 noundef %mode) #4 align 2 {
entry:
  %retval = alloca i32, align 4
  %this.addr = alloca ptr, align 8
  %mode.addr = alloca i32, align 4
  %lock = alloca %"class.node::MutexBase<node::LibuvMutexTraits>::ScopedLock", align 8
  %cleanup.dest.slot = alloca i32, align 4
  store ptr %this, ptr %this.addr, align 8
  store i32 %mode, ptr %mode.addr, align 4
  %this1 = load ptr, ptr %this.addr, align 8
  %mutex = getelementptr inbounds %"class.v8impl::(anonymous namespace)::ThreadSafeFunction", ptr %this1, i32 0, i32 1
  call void @_ZN4node9MutexBaseINS_16LibuvMutexTraitsEE10ScopedLockC2ERKS2_(ptr noundef nonnull align 8 dereferenceable(8) %lock, ptr noundef nonnull align 8 dereferenceable(40) %mutex)
  %thread_count = getelementptr inbounds %"class.v8impl::(anonymous namespace)::ThreadSafeFunction", ptr %this1, i32 0, i32 5
  %0 = load i64, ptr %thread_count, align 8
  %cmp = icmp eq i64 %0, 0
  br i1 %cmp, label %if.then, label %if.end

if.then:                                          ; preds = %entry
  store i32 1, ptr %retval, align 4
  store i32 1, ptr %cleanup.dest.slot, align 4
  br label %cleanup

if.end:                                           ; preds = %entry
  %thread_count2 = getelementptr inbounds %"class.v8impl::(anonymous namespace)::ThreadSafeFunction", ptr %this1, i32 0, i32 5
  %1 = load i64, ptr %thread_count2, align 8
  %dec = add i64 %1, -1
  store i64 %dec, ptr %thread_count2, align 8
  %thread_count3 = getelementptr inbounds %"class.v8impl::(anonymous namespace)::ThreadSafeFunction", ptr %this1, i32 0, i32 5
  %2 = load i64, ptr %thread_count3, align 8
  %cmp4 = icmp eq i64 %2, 0
  br i1 %cmp4, label %if.then6, label %lor.lhs.false

lor.lhs.false:                                    ; preds = %if.end
  %3 = load i32, ptr %mode.addr, align 4
  %cmp5 = icmp eq i32 %3, 1
  br i1 %cmp5, label %if.then6, label %if.end16

if.then6:                                         ; preds = %lor.lhs.false, %if.end
  %is_closing = getelementptr inbounds %"class.v8impl::(anonymous namespace)::ThreadSafeFunction", ptr %this1, i32 0, i32 6
  %4 = load i8, ptr %is_closing, align 8
  %tobool = trunc i8 %4 to i1
  br i1 %tobool, label %if.end15, label %if.then7

if.then7:                                         ; preds = %if.then6
  %5 = load i32, ptr %mode.addr, align 4
  %cmp8 = icmp eq i32 %5, 1
  %is_closing9 = getelementptr inbounds %"class.v8impl::(anonymous namespace)::ThreadSafeFunction", ptr %this1, i32 0, i32 6
  %frombool = zext i1 %cmp8 to i8
  store i8 %frombool, ptr %is_closing9, align 8
  %is_closing10 = getelementptr inbounds %"class.v8impl::(anonymous namespace)::ThreadSafeFunction", ptr %this1, i32 0, i32 6
  %6 = load i8, ptr %is_closing10, align 8
  %tobool11 = trunc i8 %6 to i1
  br i1 %tobool11, label %land.lhs.true, label %if.end14

land.lhs.true:                                    ; preds = %if.then7
  %max_queue_size = getelementptr inbounds %"class.v8impl::(anonymous namespace)::ThreadSafeFunction", ptr %this1, i32 0, i32 10
  %7 = load i64, ptr %max_queue_size, align 8
  %cmp12 = icmp ugt i64 %7, 0
  br i1 %cmp12, label %if.then13, label %if.end14

if.then13:                                        ; preds = %land.lhs.true
  %cond = getelementptr inbounds %"class.v8impl::(anonymous namespace)::ThreadSafeFunction", ptr %this1, i32 0, i32 2
  %call = call noundef ptr @_ZNKSt10unique_ptrIN4node21ConditionVariableBaseINS0_16LibuvMutexTraitsEEESt14default_deleteIS3_EEptEv(ptr noundef nonnull align 8 dereferenceable(8) %cond) #3
  call void @_ZN4node21ConditionVariableBaseINS_16LibuvMutexTraitsEE6SignalERKNS_9MutexBaseIS1_E10ScopedLockE(ptr noundef nonnull align 8 dereferenceable(48) %call, ptr noundef nonnull align 8 dereferenceable(8) %lock)
  br label %if.end14

if.end14:                                         ; preds = %if.then13, %land.lhs.true, %if.then7
  call void @_ZN6v8impl12_GLOBAL__N_118ThreadSafeFunction4SendEv(ptr noundef nonnull align 8 dereferenceable(369) %this1)
  br label %if.end15

if.end15:                                         ; preds = %if.end14, %if.then6
  br label %if.end16

if.end16:                                         ; preds = %if.end15, %lor.lhs.false
  store i32 0, ptr %retval, align 4
  store i32 1, ptr %cleanup.dest.slot, align 4
  br label %cleanup

cleanup:                                          ; preds = %if.end16, %if.then
  call void @_ZN4node9MutexBaseINS_16LibuvMutexTraitsEE10ScopedLockD2Ev(ptr noundef nonnull align 8 dereferenceable(8) %lock) #3
  %8 = load i32, ptr %retval, align 4
  ret i32 %8
}

; Function Attrs: mustprogress nounwind uwtable
define dso_local i32 @napi_release_threadsafe_function(ptr noundef %func, i32 noundef %mode) #4 {
entry:
  %func.addr = alloca ptr, align 8
  %mode.addr = alloca i32, align 4
  store ptr %func, ptr %func.addr, align 8
  store i32 %mode, ptr %mode.addr, align 4
  br label %do.body

do.body:                                          ; preds = %entry
  %0 = load ptr, ptr %func.addr, align 8
  %cmp = icmp ne ptr %0, null
  %lnot = xor i1 %cmp, true
  %lnot1 = xor i1 %lnot, true
  %lnot2 = xor i1 %lnot1, true
  br i1 %lnot2, label %if.then, label %if.end

if.then:                                          ; preds = %do.body
  br label %do.body3

do.body3:                                         ; preds = %if.then
  call void @_ZN4node6AssertERKNS_13AssertionInfoE(ptr noundef nonnull align 8 dereferenceable(24) @_ZZ32napi_release_threadsafe_functionE4args)
  call void @abort() #14
  unreachable

do.end:                                           ; No predecessors!
  br label %if.end

if.end:                                           ; preds = %do.end, %do.body
  br label %do.end4

do.end4:                                          ; preds = %if.end
  %1 = load ptr, ptr %func.addr, align 8
  %2 = load i32, ptr %mode.addr, align 4
  %call = call noundef i32 @_ZN6v8impl12_GLOBAL__N_118ThreadSafeFunction7ReleaseE37napi_threadsafe_function_release_mode(ptr noundef nonnull align 8 dereferenceable(369) %1, i32 noundef %2)
  ret i32 %call
}