; Function Attrs: mustprogress nounwind uwtable
define dso_local noundef i32 @napi_release_threadsafe_function(ptr noundef %func, i32 noundef %mode) local_unnamed_addr #3 {
entry:
  %cmp.not = icmp eq ptr %func, null
  br i1 %cmp.not, label %do.body3, label %do.end4

do.body3:                                         ; preds = %entry
  tail call void @_ZN4node6AssertERKNS_13AssertionInfoE(ptr noundef nonnull align 8 dereferenceable(24) @_ZZ32napi_release_threadsafe_functionE4args) #21
  tail call void @abort() #22
  unreachable

do.end4:                                          ; preds = %entry
  %mutex.i = getelementptr inbounds i8, ptr %func, i64 40
  tail call void @uv_mutex_lock(ptr noundef nonnull %mutex.i) #21
  %thread_count.i = getelementptr inbounds i8, ptr %func, i64 296
  %0 = load i64, ptr %thread_count.i, align 8
  %cmp.i = icmp eq i64 %0, 0
  br i1 %cmp.i, label %_ZN6v8impl12_GLOBAL__N_118ThreadSafeFunction7ReleaseE37napi_threadsafe_function_release_mode.exit, label %if.end.i

if.end.i:                                         ; preds = %do.end4
  %dec.i = add i64 %0, -1
  store i64 %dec.i, ptr %thread_count.i, align 8
  %cmp4.i = icmp eq i64 %dec.i, 0
  %cmp5.i = icmp eq i32 %mode, 1
  %or.cond.i = or i1 %cmp5.i, %cmp4.i
  br i1 %or.cond.i, label %if.then6.i, label %_ZN6v8impl12_GLOBAL__N_118ThreadSafeFunction7ReleaseE37napi_threadsafe_function_release_mode.exit

if.then6.i:                                       ; preds = %if.end.i
  %is_closing.i = getelementptr inbounds i8, ptr %func, i64 304
  %1 = load i8, ptr %is_closing.i, align 8
  %2 = and i8 %1, 1
  %tobool.not.i = icmp eq i8 %2, 0
  br i1 %tobool.not.i, label %if.then7.i, label %_ZN6v8impl12_GLOBAL__N_118ThreadSafeFunction7ReleaseE37napi_threadsafe_function_release_mode.exit

if.then7.i:                                       ; preds = %if.then6.i
  %frombool.i = zext i1 %cmp5.i to i8
  store i8 %frombool.i, ptr %is_closing.i, align 8
  %max_queue_size.i = getelementptr inbounds i8, ptr %func, i64 320
  %3 = load i64, ptr %max_queue_size.i, align 8
  %cmp12.not.i = icmp ne i64 %3, 0
  %or.cond2.not.i = select i1 %cmp5.i, i1 %cmp12.not.i, i1 false
  br i1 %or.cond2.not.i, label %if.then13.i, label %if.end14.i

if.then13.i:                                      ; preds = %if.then7.i
  %cond.i = getelementptr inbounds i8, ptr %func, i64 80
  %4 = load ptr, ptr %cond.i, align 8
  tail call void @uv_cond_signal(ptr noundef nonnull %4) #21
  br label %if.end14.i

if.end14.i:                                       ; preds = %if.then13.i, %if.then7.i
  %dispatch_state.i.i = getelementptr inbounds i8, ptr %func, i64 305
  %5 = atomicrmw or ptr %dispatch_state.i.i, i8 2 seq_cst, align 1
  %6 = and i8 %5, 1
  %cmp.not.i.i = icmp eq i8 %6, 0
  br i1 %cmp.not.i.i, label %do.body.i.i, label %_ZN6v8impl12_GLOBAL__N_118ThreadSafeFunction7ReleaseE37napi_threadsafe_function_release_mode.exit

do.body.i.i:                                      ; preds = %if.end14.i
  %async.i.i = getelementptr inbounds i8, ptr %func, i64 168
  %call2.i.i = tail call i32 @uv_async_send(ptr noundef nonnull %async.i.i) #21
  %cmp3.not.i.i = icmp eq i32 %call2.i.i, 0
  br i1 %cmp3.not.i.i, label %_ZN6v8impl12_GLOBAL__N_118ThreadSafeFunction7ReleaseE37napi_threadsafe_function_release_mode.exit, label %do.body8.i.i

do.body8.i.i:                                     ; preds = %do.body.i.i
  tail call void @_ZN4node6AssertERKNS_13AssertionInfoE(ptr noundef nonnull align 8 dereferenceable(24) @_ZZN6v8impl12_GLOBAL__N_118ThreadSafeFunction4SendEvE4args) #21
  tail call void @abort() #22
  unreachable

_ZN6v8impl12_GLOBAL__N_118ThreadSafeFunction7ReleaseE37napi_threadsafe_function_release_mode.exit: ; preds = %do.end4, %if.end.i, %if.then6.i, %if.end14.i, %do.body.i.i
  %retval.0.i = phi i32 [ 1, %do.end4 ], [ 0, %if.then6.i ], [ 0, %if.end.i ], [ 0, %if.end14.i ], [ 0, %do.body.i.i ]
  tail call void @uv_mutex_unlock(ptr noundef nonnull %mutex.i) #21
  ret i32 %retval.0.i
}